target datalayout = "e-m:e-p270:32:32-p271:32:32-p272:64:64-i64:64-i128:128-f80:128-n8:16:32:64-S128"
target triple = "x86_64-pc-linux-gnu"

; Function Attrs: nounwind uwtable
define ptr @SMIME_read_CMS_ex(ptr noundef %0, i32 noundef %1, ptr noundef %2, ptr noundef %3) #0 {
  %5 = alloca ptr, align 8
  %6 = alloca i32, align 4
  %7 = alloca ptr, align 8
  %8 = alloca ptr, align 8
  %9 = alloca ptr, align 8
  %10 = alloca ptr, align 8
  store ptr %0, ptr %5, align 8, !tbaa !21
  store i32 %1, ptr %6, align 4, !tbaa !30
  store ptr %2, ptr %7, align 8, !tbaa !45
  store ptr %3, ptr %8, align 8, !tbaa !23
  call void @llvm.lifetime.start.p0(i64 8, ptr %9) #3
  call void @llvm.lifetime.start.p0(i64 8, ptr %10) #3
  %11 = load ptr, ptr %8, align 8, !tbaa !23
  %12 = icmp eq ptr %11, null
  br i1 %12, label %13, label %14

13:                                               ; preds = %4
  br label %17

14:                                               ; preds = %4
  %15 = load ptr, ptr %8, align 8, !tbaa !23
  %16 = load ptr, ptr %15, align 8, !tbaa !8
  br label %17

17:                                               ; preds = %14, %13
  %18 = phi ptr [ null, %13 ], [ %16, %14 ]
  %19 = call ptr @ossl_cms_get0_cmsctx(ptr noundef %18)
  store ptr %19, ptr %10, align 8, !tbaa !25
  %20 = load ptr, ptr %5, align 8, !tbaa !21
  %21 = load i32, ptr %6, align 4, !tbaa !30
  %22 = load ptr, ptr %7, align 8, !tbaa !45
  %23 = call ptr @CMS_ContentInfo_it()
  %24 = load ptr, ptr %8, align 8, !tbaa !23
  %25 = load ptr, ptr %10, align 8, !tbaa !25
  %26 = call ptr @ossl_cms_ctx_get0_libctx(ptr noundef %25)
  %27 = load ptr, ptr %10, align 8, !tbaa !25
  %28 = call ptr @ossl_cms_ctx_get0_propq(ptr noundef %27)
  %29 = call ptr @SMIME_read_ASN1_ex(ptr noundef %20, i32 noundef %21, ptr noundef %22, ptr noundef %23, ptr noundef %24, ptr noundef %26, ptr noundef %28)
  store ptr %29, ptr %9, align 8, !tbaa !8
  %30 = load ptr, ptr %9, align 8, !tbaa !8
  %31 = icmp ne ptr %30, null
  br i1 %31, label %32, label %36

32:                                               ; preds = %17
  %33 = call i32 @ERR_set_mark()
  %34 = load ptr, ptr %9, align 8, !tbaa !8
  call void @ossl_cms_resolve_libctx(ptr noundef %34)
  %35 = call i32 @ERR_pop_to_mark()
  br label %36

36:                                               ; preds = %32, %17
  %37 = load ptr, ptr %9, align 8, !tbaa !8
  call void @llvm.lifetime.end.p0(i64 8, ptr %10) #3
  call void @llvm.lifetime.end.p0(i64 8, ptr %9) #3
  ret ptr %37
}