; Function Attrs: nounwind uwtable
define ptr @SMIME_read_CMS_ex(ptr noundef %0, i32 noundef %1, ptr noundef %2, ptr noundef %3) local_unnamed_addr #0 {
  %5 = icmp eq ptr %3, null
  br i1 %5, label %8, label %6

6:                                                ; preds = %4
  %7 = load ptr, ptr %3, align 8, !tbaa !15
  br label %8

8:                                                ; preds = %4, %6
  %9 = phi ptr [ %7, %6 ], [ null, %4 ]
  %10 = tail call ptr @ossl_cms_get0_cmsctx(ptr noundef %9) #2
  %11 = tail call ptr @CMS_ContentInfo_it() #2
  %12 = tail call ptr @ossl_cms_ctx_get0_libctx(ptr noundef %10) #2
  %13 = tail call ptr @ossl_cms_ctx_get0_propq(ptr noundef %10) #2
  %14 = tail call ptr @SMIME_read_ASN1_ex(ptr noundef %0, i32 noundef %1, ptr noundef %2, ptr noundef %11, ptr noundef %3, ptr noundef %12, ptr noundef %13) #2
  %.not = icmp eq ptr %14, null
  br i1 %.not, label %18, label %15

15:                                               ; preds = %8
  %16 = tail call i32 @ERR_set_mark() #2
  tail call void @ossl_cms_resolve_libctx(ptr noundef nonnull %14) #2
  %17 = tail call i32 @ERR_pop_to_mark() #2
  br label %18

18:                                               ; preds = %15, %8
  ret ptr %14
}